; Function Attrs: inlinehint nofree norecurse nosync nounwind memory(read, inaccessiblemem: none) uwtable
define internal fastcc i32 @Ndr_ObjReadBody(ptr noundef readonly captures(none) %0, i32 noundef %1, i32 noundef range(i32 4, 8) %2) unnamed_addr #12 {
  %4 = add nsw i32 %1, 1
  %5 = getelementptr i8, ptr %0, i64 16
  %.val14 = load ptr, ptr %5, align 8, !tbaa !16
  %6 = sext i32 %1 to i64
  %7 = getelementptr inbounds i32, ptr %.val14, i64 %6
  %8 = load i32, ptr %7, align 4, !tbaa !3
  %9 = add i32 %8, %1
  %10 = icmp slt i32 %4, %9
  br i1 %10, label %.lr.ph, label %.loopexit

.lr.ph:                                           ; preds = %3
  %11 = getelementptr i8, ptr %0, i64 8
  %.val13 = load ptr, ptr %11, align 8, !tbaa !15
  br label %12

12:                                               ; preds = %.lr.ph, %Ndr_DataSize.exit
  %.016 = phi i32 [ %4, %.lr.ph ], [ %27, %Ndr_DataSize.exit ]
  %13 = sext i32 %.016 to i64
  %14 = getelementptr inbounds i8, ptr %.val13, i64 %13
  %15 = load i8, ptr %14, align 1, !tbaa !7
  %16 = zext i8 %15 to i32
  %17 = icmp eq i32 %2, %16
  br i1 %17, label %18, label %21

18:                                               ; preds = %12
  %19 = getelementptr inbounds i32, ptr %.val14, i64 %13
  %20 = load i32, ptr %19, align 4, !tbaa !3
  br label %.loopexit

21:                                               ; preds = %12
  %22 = icmp ugt i8 %15, 3
  br i1 %22, label %Ndr_DataSize.exit, label %23

23:                                               ; preds = %21
  %24 = getelementptr inbounds i32, ptr %.val14, i64 %13
  %25 = load i32, ptr %24, align 4, !tbaa !3
  br label %Ndr_DataSize.exit

Ndr_DataSize.exit:                                ; preds = %21, %23
  %26 = phi i32 [ %25, %23 ], [ 1, %21 ]
  %27 = add nsw i32 %26, %.016
  %28 = icmp slt i32 %27, %9
  br i1 %28, label %12, label %.loopexit, !llvm.loop !46

.loopexit:                                        ; preds = %Ndr_DataSize.exit, %3, %18
  %.012 = phi i32 [ %20, %18 ], [ -1, %3 ], [ -1, %Ndr_DataSize.exit ]
  ret i32 %.012
}